target datalayout = "e-m:e-p270:32:32-p271:32:32-p272:64:64-i64:64-i128:128-f80:128-n8:16:32:64-S128"
target triple = "x86_64-unknown-linux-gnu"

%struct.BinaryProperty = type { i32, i32, ptr }
%struct.IntProperty = type { i32, i32, i32, ptr, ptr }

; Function Attrs: mustprogress uwtable
define i32 @u_getIntPropertyValue_75(i32 noundef %c, i32 noundef %which) #0 {
entry:
  %retval = alloca i32, align 4
  %c.addr = alloca i32, align 4
  %which.addr = alloca i32, align 4
  %prop = alloca ptr, align 8
  %prop6 = alloca ptr, align 8
  store i32 %c, ptr %c.addr, align 4
  store i32 %which, ptr %which.addr, align 4
  %0 = load i32, ptr %which.addr, align 4
  %cmp = icmp slt i32 %0, 4096
  br i1 %cmp, label %if.then, label %if.else

if.then:                                          ; preds = %entry
  %1 = load i32, ptr %which.addr, align 4
  %cmp1 = icmp sle i32 0, %1
  br i1 %cmp1, label %land.lhs.true, label %if.end

land.lhs.true:                                    ; preds = %if.then
  %2 = load i32, ptr %which.addr, align 4
  %cmp2 = icmp slt i32 %2, 75
  br i1 %cmp2, label %if.then3, label %if.end

if.then3:                                         ; preds = %land.lhs.true
  %3 = load i32, ptr %which.addr, align 4
  %idxprom = sext i32 %3 to i64
  %arrayidx = getelementptr inbounds [75 x %struct.BinaryProperty], ptr @_ZL8binProps, i64 0, i64 %idxprom
  store ptr %arrayidx, ptr %prop, align 8
  %4 = load ptr, ptr %prop, align 8
  %contains = getelementptr inbounds %struct.BinaryProperty, ptr %4, i32 0, i32 2
  %5 = load ptr, ptr %contains, align 8
  %6 = load ptr, ptr %prop, align 8
  %7 = load i32, ptr %c.addr, align 4
  %8 = load i32, ptr %which.addr, align 4
  %call = call noundef signext i8 %5(ptr noundef nonnull align 8 dereferenceable(16) %6, i32 noundef %7, i32 noundef %8)
  %conv = sext i8 %call to i32
  store i32 %conv, ptr %retval, align 4
  br label %return

if.end:                                           ; preds = %land.lhs.true, %if.then
  br label %if.end17

if.else:                                          ; preds = %entry
  %9 = load i32, ptr %which.addr, align 4
  %cmp4 = icmp slt i32 %9, 4121
  br i1 %cmp4, label %if.then5, label %if.else10

if.then5:                                         ; preds = %if.else
  %10 = load i32, ptr %which.addr, align 4
  %sub = sub nsw i32 %10, 4096
  %idxprom7 = sext i32 %sub to i64
  %arrayidx8 = getelementptr inbounds [25 x %struct.IntProperty], ptr @_ZL8intProps, i64 0, i64 %idxprom7
  store ptr %arrayidx8, ptr %prop6, align 8
  %11 = load ptr, ptr %prop6, align 8
  %getValue = getelementptr inbounds %struct.IntProperty, ptr %11, i32 0, i32 3
  %12 = load ptr, ptr %getValue, align 8
  %13 = load ptr, ptr %prop6, align 8
  %14 = load i32, ptr %c.addr, align 4
  %15 = load i32, ptr %which.addr, align 4
  %call9 = call noundef i32 %12(ptr noundef nonnull align 8 dereferenceable(32) %13, i32 noundef %14, i32 noundef %15)
  store i32 %call9, ptr %retval, align 4
  br label %return

if.else10:                                        ; preds = %if.else
  %16 = load i32, ptr %which.addr, align 4
  %cmp11 = icmp eq i32 %16, 8192
  br i1 %cmp11, label %if.then12, label %if.end15

if.then12:                                        ; preds = %if.else10
  %17 = load i32, ptr %c.addr, align 4
  %call13 = call signext i8 @u_charType_75(i32 noundef %17)
  %conv14 = sext i8 %call13 to i32
  %shl = shl i32 1, %conv14
  store i32 %shl, ptr %retval, align 4
  br label %return

if.end15:                                         ; preds = %if.else10
  br label %if.end16

if.end16:                                         ; preds = %if.end15
  br label %if.end17

if.end17:                                         ; preds = %if.end16, %if.end
  store i32 0, ptr %retval, align 4
  br label %return

return:                                           ; preds = %if.end17, %if.then12, %if.then5, %if.then3
  %18 = load i32, ptr %retval, align 4
  ret i32 %18
}