; Function Attrs: mustprogress uwtable
define i32 @u_getIntPropertyValue_75(i32 noundef %c, i32 noundef %which) local_unnamed_addr #0 {
entry:
  %cmp = icmp slt i32 %which, 4096
  br i1 %cmp, label %if.then, label %if.else

if.then:                                          ; preds = %entry
  %or.cond = icmp ult i32 %which, 75
  br i1 %or.cond, label %if.then3, label %return

if.then3:                                         ; preds = %if.then
  %idxprom = zext nneg i32 %which to i64
  %arrayidx = getelementptr inbounds [75 x %struct.BinaryProperty], ptr @_ZL8binProps, i64 0, i64 %idxprom
  %contains = getelementptr inbounds i8, ptr %arrayidx, i64 8
  %0 = load ptr, ptr %contains, align 8
  %call = tail call noundef signext i8 %0(ptr noundef nonnull align 8 dereferenceable(16) %arrayidx, i32 noundef %c, i32 noundef %which)
  %conv = sext i8 %call to i32
  br label %return

if.else:                                          ; preds = %entry
  %cmp4 = icmp ult i32 %which, 4121
  br i1 %cmp4, label %if.then5, label %if.else10

if.then5:                                         ; preds = %if.else
  %sub = add nsw i32 %which, -4096
  %idxprom7 = zext nneg i32 %sub to i64
  %arrayidx8 = getelementptr inbounds [25 x %struct.IntProperty], ptr @_ZL8intProps, i64 0, i64 %idxprom7
  %getValue = getelementptr inbounds i8, ptr %arrayidx8, i64 16
  %1 = load ptr, ptr %getValue, align 16
  %call9 = tail call noundef i32 %1(ptr noundef nonnull align 8 dereferenceable(32) %arrayidx8, i32 noundef %c, i32 noundef %which)
  br label %return

if.else10:                                        ; preds = %if.else
  %cmp11 = icmp eq i32 %which, 8192
  br i1 %cmp11, label %if.then12, label %return

if.then12:                                        ; preds = %if.else10
  %call13 = tail call signext i8 @u_charType_75(i32 noundef %c)
  %conv1413 = zext nneg i8 %call13 to i32
  %shl = shl nuw i32 1, %conv1413
  br label %return

return:                                           ; preds = %if.then, %if.else10, %if.then12, %if.then5, %if.then3
  %retval.0 = phi i32 [ %conv, %if.then3 ], [ %call9, %if.then5 ], [ %shl, %if.then12 ], [ 0, %if.else10 ], [ 0, %if.then ]
  ret i32 %retval.0
}